#include <math.h>
#include <stdio.h>
#include <stdlib.h>
#include <string.h>

void main()
{
	char t,a[100],b[100];
	int m,n,i,j;
	scanf("%s",a);scanf("%s",b);
    m=strlen(a);n=strlen(b);
	for(i=0;i<m;i++)
	{
		for(j=i;j<n;j++)
			if(a[i]==b[j]){t=b[j];b[j]=b[i];b[i]=t;}
	}
	if(strcmp(a,b)==0)printf("YES");
	else printf("NO");
}